target datalayout = "e-m:e-p270:32:32-p271:32:32-p272:64:64-i64:64-i128:128-f80:128-n8:16:32:64-S128"
target triple = "x86_64-pc-linux-gnu"

%"struct.cv::detail::CheckContext" = type { ptr, ptr, i32, i32, ptr, ptr, ptr }
%"class.cv::details::FastX" = type { %"class.cv::Feature2D", %"struct.cv::details::FastX::Parameters" }
%"class.cv::Feature2D" = type { %"class.cv::Algorithm" }
%"class.cv::Algorithm" = type { ptr }
%"struct.cv::details::FastX::Parameters" = type <{ float, float, i32, i32, i32, i8, i8, [2 x i8] }>

@_ZZN2cv7details5FastX11reconfigureERKNS1_10ParametersEE15__cv_check__360 = internal constant %"struct.cv::detail::CheckContext" { ptr @.str, ptr @.str.2, i32 360, i32 0, ptr @.str.3, ptr @.str.4, ptr @.str.5 }, align 8

; Function Attrs: mustprogress uwtable
define hidden void @_ZN2cv7details5FastX11reconfigureERKNS1_10ParametersE(ptr noundef nonnull align 8 dereferenceable(32) %0, ptr noundef nonnull align 4 dereferenceable(22) %1) #5 align 2 {
  %3 = alloca ptr, align 8
  %4 = alloca ptr, align 8
  store ptr %0, ptr %3, align 8, !tbaa !9
  store ptr %1, ptr %4, align 8, !tbaa !14
  %5 = load ptr, ptr %3, align 8
  br label %6

6:                                                ; preds = %2
  %7 = load ptr, ptr %4, align 8, !tbaa !14
  %8 = getelementptr inbounds nuw %"struct.cv::details::FastX::Parameters", ptr %7, i32 0, i32 3
  %9 = load i32, ptr %8, align 4, !tbaa !25
  %10 = icmp sge i32 %9, 0
  br i1 %10, label %11, label %20

11:                                               ; preds = %6
  %12 = load ptr, ptr %4, align 8, !tbaa !14
  %13 = getelementptr inbounds nuw %"struct.cv::details::FastX::Parameters", ptr %12, i32 0, i32 3
  %14 = load i32, ptr %13, align 4, !tbaa !25
  %15 = load ptr, ptr %4, align 8, !tbaa !14
  %16 = getelementptr inbounds nuw %"struct.cv::details::FastX::Parameters", ptr %15, i32 0, i32 4
  %17 = load i32, ptr %16, align 4, !tbaa !26
  %18 = icmp sle i32 %14, %17
  br i1 %18, label %19, label %20

19:                                               ; preds = %11
  br label %24

20:                                               ; preds = %11, %6
  %21 = load ptr, ptr %4, align 8, !tbaa !14
  %22 = getelementptr inbounds nuw %"struct.cv::details::FastX::Parameters", ptr %21, i32 0, i32 3
  %23 = load i32, ptr %22, align 4, !tbaa !25
  call void @_ZN2cv6detail17check_failed_autoEiRKNS0_12CheckContextE(i32 noundef %23, ptr noundef nonnull align 8 dereferenceable(48) @_ZZN2cv7details5FastX11reconfigureERKNS1_10ParametersEE15__cv_check__360) #25
  unreachable

24:                                               ; preds = %19
  br label %25

25:                                               ; preds = %24
  %26 = load ptr, ptr %4, align 8, !tbaa !14
  %27 = getelementptr inbounds nuw %"class.cv::details::FastX", ptr %5, i32 0, i32 1
  call void @llvm.memcpy.p0.p0.i64(ptr align 8 %27, ptr align 4 %26, i64 22, i1 false), !tbaa.struct !29
  ret void
}