; Function Attrs: mustprogress uwtable
define hidden void @_ZN2cv7details5FastX11reconfigureERKNS1_10ParametersE(ptr noundef nonnull writeonly align 8 captures(none) dereferenceable(32) %0, ptr noundef nonnull readonly align 4 captures(none) dereferenceable(22) %1) local_unnamed_addr #5 align 2 {
  %3 = getelementptr inbounds nuw i8, ptr %1, i64 12
  %4 = load i32, ptr %3, align 4, !tbaa !14
  %5 = icmp slt i32 %4, 0
  %6 = getelementptr inbounds nuw i8, ptr %1, i64 16
  %7 = load i32, ptr %6, align 4
  %.not = icmp sgt i32 %4, %7
  %or.cond = select i1 %5, i1 true, i1 %.not
  br i1 %or.cond, label %8, label %9

8:                                                ; preds = %2
  tail call void @_ZN2cv6detail17check_failed_autoEiRKNS0_12CheckContextE(i32 noundef %4, ptr noundef nonnull align 8 dereferenceable(48) @_ZZN2cv7details5FastX11reconfigureERKNS1_10ParametersEE15__cv_check__360) #36
  unreachable

9:                                                ; preds = %2
  %10 = getelementptr inbounds nuw i8, ptr %0, i64 8
  tail call void @llvm.memcpy.p0.p0.i64(ptr noundef nonnull align 8 dereferenceable(22) %10, ptr noundef nonnull align 4 dereferenceable(22) %1, i64 22, i1 false), !tbaa.struct !18
  ret void
}